target datalayout = "e-m:e-p270:32:32-p271:32:32-p272:64:64-i64:64-i128:128-f80:128-n8:16:32:64-S128"
target triple = "x86_64-unknown-linux-gnu"

%struct.redisServer = type { i32, i64, ptr, ptr, ptr, i32, i32, i32, i32, i32, ptr, ptr, ptr, ptr, ptr, ptr, i32, i32, i64, i32, i32, i32, i32, ptr, i32, i32, [41 x i8], i32, i64, i32, i32, i32, ptr, ptr, i32, i32, i64, ptr, ptr, ptr, ptr, [2 x i32], i32, i32, i32, i32, i32, [16 x ptr], i32, ptr, ptr, i32, [8 x %struct.connListener], i32, %struct.connListener, ptr, ptr, ptr, ptr, ptr, ptr, ptr, ptr, ptr, ptr, i32, ptr, i32, ptr, [3 x %struct.pause_event], [256 x i8], ptr, i64, i32, i32, i32, i32, i64, i32, i32, i32, i32, i32, i64, i64, i64, i64, i64, i64, i64, i64, i64, double, i64, i64, i64, i64, i64, i64, i64, i64, i64, i64, i64, i64, i64, i64, i64, i64, i64, i64, i64, i64, double, i64, i64, i64, i64, i64, ptr, i64, i64, i64, %struct.malloc_stats, i64, i64, i64, i64, i64, i64, i64, i64, i64, i64, i64, i64, double, [4 x i64], i64, i64, i64, i64, i64, i64, i64, i64, i64, i64, [7 x %struct.anon], i64, i64, i64, i64, i64, i64, [4 x %struct.durationStats], i32, i32, i32, i32, i32, i32, i32, i32, i32, i32, i64, i32, i32, i32, i32, i64, i64, i32, i32, i32, i32, i32, ptr, [3 x %struct.clientBufferLimitsConfig], i32, i32, ptr, i32, i32, i32, i32, ptr, ptr, i32, i32, i64, i64, i64, i64, i64, i32, i32, ptr, i32, i32, i64, i64, i64, i64, i64, i32, i32, i64, i32, i32, i32, i32, i32, i32, i32, i32, ptr, i32, i64, i64, i64, i64, ptr, i32, ptr, i32, i32, i32, i64, i64, i64, i64, i32, i32, i32, i32, i32, i32, ptr, i32, i32, ptr, i32, i32, i32, [2 x i32], i32, %struct.redisOpArray, i32, ptr, i32, ptr, i32, i32, i32, i32, i32, i32, i32, [41 x i8], [41 x i8], i64, i64, i64, i64, i32, i32, ptr, i64, i64, i64, i32, i32, i32, i32, i32, i32, i32, i64, ptr, ptr, ptr, ptr, i32, i32, ptr, ptr, i32, i32, i64, i64, i64, ptr, i32, ptr, i64, i32, i32, i32, i64, i32, i32, i32, i32, ptr, i32, i32, [41 x i8], i64, i32, ptr, i32, i32, i64, i64, i32, i32, i32, i32, i32, i64, [3 x i32], i32, i32, i32, [9 x i32], ptr, ptr, i32, i64, ptr, ptr, i32, i32, i32, i32, i64, i64, i64, i64, i64, i64, i64, i64, i64, i64, i32, i32, i64, i64, i32, i64, i64, i64, i64, i64, ptr, ptr, i32, ptr, i32, i32, i32, i64, i64, ptr, ptr, i32, i32, i32, i32, i32, ptr, ptr, ptr, i32, i32, i32, i32, i32, i32, i32, i64, i32, i64, i32, i32, i32, i32, i32, i32, i32, i64, ptr, ptr, i64, ptr, i32, %struct.aclInfo, i32, i64, i32, i32, i32, %struct.redisTLSContextConfig, ptr, ptr, ptr, ptr, ptr, i64, i32, ptr, i32, i32, i32, i64, i32, ptr }
%struct.connListener = type { [16 x i32], i32, ptr, i32, i32, ptr, ptr }
%struct.pause_event = type { i32, i64 }
%struct.malloc_stats = type { i64, i64, i64, i64, i64 }
%struct.anon = type { i64, i64, [16 x i64], i32 }
%struct.durationStats = type { i64, i64, i64 }
%struct.clientBufferLimitsConfig = type { i64, i64, i64 }
%struct.redisOpArray = type { ptr, i32, i32 }
%struct.aclInfo = type { i64, i64, i64, i64 }
%struct.redisTLSContextConfig = type { ptr, ptr, ptr, ptr, ptr, ptr, ptr, ptr, ptr, ptr, ptr, ptr, i32, i32, i32, i32 }
%union.pthread_mutex_t = type { %struct.__pthread_mutex_s }
%struct.__pthread_mutex_s = type { i32, i32, i32, i32, i32, i16, i16, %struct.__pthread_internal_list }
%struct.__pthread_internal_list = type { ptr, ptr }
%struct.sigaction = type { %union.anon, %struct.__sigset_t, i32, ptr }
%union.anon = type { ptr }
%struct.__sigset_t = type { [16 x i64] }

@server = external global %struct.redisServer, align 8
@.str.233 = private unnamed_addr constant [25 x i8] c"=== ASSERTION FAILED ===\00", align 1
@.str.234 = private unnamed_addr constant [27 x i8] c"==> %s:%d '%s' is not true\00", align 1
@bug_report_start_mutex = internal global %union.pthread_mutex_t zeroinitializer, align 8
@bug_report_start = internal global i32 0, align 4
@.str.248 = private unnamed_addr constant [66 x i8] c"\0A\0A=== REDIS BUG REPORT START: Cut & paste starting from here ===\0A\00", align 1
@stdout = external global ptr, align 8

; Function Attrs: nounwind uwtable
define dso_local void @bugReportEnd(i32 noundef %killViaSignal, i32 noundef %sig) #0 {
entry:
  %killViaSignal.addr = alloca i32, align 4
  %sig.addr = alloca i32, align 4
  %act = alloca %struct.sigaction, align 8
  store i32 %killViaSignal, ptr %killViaSignal.addr, align 4
  store i32 %sig, ptr %sig.addr, align 4
  call void @serverLogRawFromHandler(i32 noundef 1027, ptr noundef @.str.289)
  %0 = load i32, ptr getelementptr inbounds (%struct.redisServer, ptr @server, i32 0, i32 176), align 4
  %tobool = icmp ne i32 %0, 0
  br i1 %tobool, label %land.lhs.true, label %if.end

land.lhs.true:                                    ; preds = %entry
  %1 = load i32, ptr getelementptr inbounds (%struct.redisServer, ptr @server, i32 0, i32 174), align 4
  %cmp = icmp eq i32 %1, 0
  br i1 %cmp, label %land.lhs.true1, label %if.end

land.lhs.true1:                                   ; preds = %land.lhs.true
  %2 = load ptr, ptr getelementptr inbounds (%struct.redisServer, ptr @server, i32 0, i32 23), align 8
  %tobool2 = icmp ne ptr %2, null
  br i1 %tobool2, label %if.then, label %if.end

if.then:                                          ; preds = %land.lhs.true1
  %3 = load ptr, ptr getelementptr inbounds (%struct.redisServer, ptr @server, i32 0, i32 23), align 8
  %call = call i32 @unlink(ptr noundef %3) #14
  br label %if.end

if.end:                                           ; preds = %if.then, %land.lhs.true1, %land.lhs.true, %entry
  %4 = load i32, ptr %killViaSignal.addr, align 4
  %tobool3 = icmp ne i32 %4, 0
  br i1 %tobool3, label %if.end9, label %if.then4

if.then4:                                         ; preds = %if.end
  %5 = load i32, ptr getelementptr inbounds (%struct.redisServer, ptr @server, i32 0, i32 256), align 4
  %tobool5 = icmp ne i32 %5, 0
  br i1 %tobool5, label %if.then6, label %if.end8

if.then6:                                         ; preds = %if.then4
  %6 = load ptr, ptr @stdout, align 8
  %call7 = call i32 @fflush(ptr noundef %6)
  call void @_exit(i32 noundef 1) #16
  unreachable

if.end8:                                          ; preds = %if.then4
  call void @abort() #12
  unreachable

if.end9:                                          ; preds = %if.end
  %sa_mask = getelementptr inbounds %struct.sigaction, ptr %act, i32 0, i32 1
  %call10 = call i32 @sigemptyset(ptr noundef %sa_mask) #14
  %sa_flags = getelementptr inbounds %struct.sigaction, ptr %act, i32 0, i32 2
  store i32 0, ptr %sa_flags, align 8
  %__sigaction_handler = getelementptr inbounds %struct.sigaction, ptr %act, i32 0, i32 0
  store ptr null, ptr %__sigaction_handler, align 8
  %7 = load i32, ptr %sig.addr, align 4
  %call11 = call i32 @sigaction(i32 noundef %7, ptr noundef %act, ptr noundef null) #14
  %call12 = call i32 @getpid() #14
  %8 = load i32, ptr %sig.addr, align 4
  %call13 = call i32 @kill(i32 noundef %call12, i32 noundef %8) #14
  ret void
}

; Function Attrs: nounwind uwtable
define dso_local void @removeSigSegvHandlers() #0 {
entry:
  %act = alloca %struct.sigaction, align 8
  %sa_mask = getelementptr inbounds %struct.sigaction, ptr %act, i32 0, i32 1
  %call = call i32 @sigemptyset(ptr noundef %sa_mask) #14
  %sa_flags = getelementptr inbounds %struct.sigaction, ptr %act, i32 0, i32 2
  store i32 -1073741824, ptr %sa_flags, align 8
  %__sigaction_handler = getelementptr inbounds %struct.sigaction, ptr %act, i32 0, i32 0
  store ptr null, ptr %__sigaction_handler, align 8
  %call1 = call i32 @sigaction(i32 noundef 11, ptr noundef %act, ptr noundef null) #14
  %call2 = call i32 @sigaction(i32 noundef 7, ptr noundef %act, ptr noundef null) #14
  %call3 = call i32 @sigaction(i32 noundef 8, ptr noundef %act, ptr noundef null) #14
  %call4 = call i32 @sigaction(i32 noundef 4, ptr noundef %act, ptr noundef null) #14
  %call5 = call i32 @sigaction(i32 noundef 6, ptr noundef %act, ptr noundef null) #14
  ret void
}

; Function Attrs: nounwind uwtable
define dso_local void @bugReportStart() #0 {
entry:
  %call = call i32 @pthread_mutex_lock(ptr noundef @bug_report_start_mutex) #14
  %0 = load i32, ptr @bug_report_start, align 4
  %cmp = icmp eq i32 %0, 0
  br i1 %cmp, label %if.then, label %if.end

if.then:                                          ; preds = %entry
  call void @serverLogRaw(i32 noundef 1027, ptr noundef @.str.248)
  store i32 1, ptr @bug_report_start, align 4
  br label %if.end

if.end:                                           ; preds = %if.then, %entry
  %call1 = call i32 @pthread_mutex_unlock(ptr noundef @bug_report_start_mutex) #14
  ret void
}

; Function Attrs: nounwind uwtable
define dso_local void @_serverAssert(ptr noundef %estr, ptr noundef %file, i32 noundef %line) #0 {
entry:
  %estr.addr = alloca ptr, align 8
  %file.addr = alloca ptr, align 8
  %line.addr = alloca i32, align 4
  store ptr %estr, ptr %estr.addr, align 8
  store ptr %file, ptr %file.addr, align 8
  store i32 %line, ptr %line.addr, align 4
  call void @bugReportStart()
  br label %do.body

do.body:                                          ; preds = %entry
  %0 = load i32, ptr getelementptr inbounds (%struct.redisServer, ptr @server, i32 0, i32 156), align 8
  %cmp = icmp slt i32 3, %0
  br i1 %cmp, label %if.then, label %if.end

if.then:                                          ; preds = %do.body
  br label %do.end

if.end:                                           ; preds = %do.body
  call void (i32, ptr, ...) @_serverLog(i32 noundef 3, ptr noundef @.str.233)
  br label %do.end

do.end:                                           ; preds = %if.end, %if.then
  br label %do.body1

do.body1:                                         ; preds = %do.end
  %1 = load i32, ptr getelementptr inbounds (%struct.redisServer, ptr @server, i32 0, i32 156), align 8
  %cmp2 = icmp slt i32 3, %1
  br i1 %cmp2, label %if.then3, label %if.end4

if.then3:                                         ; preds = %do.body1
  br label %do.end5

if.end4:                                          ; preds = %do.body1
  %2 = load ptr, ptr %file.addr, align 8
  %3 = load i32, ptr %line.addr, align 4
  %4 = load ptr, ptr %estr.addr, align 8
  call void (i32, ptr, ...) @_serverLog(i32 noundef 3, ptr noundef @.str.234, ptr noundef %2, i32 noundef %3, ptr noundef %4)
  br label %do.end5

do.end5:                                          ; preds = %if.end4, %if.then3
  %5 = load i32, ptr getelementptr inbounds (%struct.redisServer, ptr @server, i32 0, i32 254), align 4
  %tobool = icmp ne i32 %5, 0
  br i1 %tobool, label %if.then6, label %if.end7

if.then6:                                         ; preds = %do.end5
  call void @logStackTrace(ptr noundef null, i32 noundef 1)
  call void @printCrashReport()
  br label %if.end7

if.end7:                                          ; preds = %if.then6, %do.end5
  call void @removeSigSegvHandlers()
  call void @bugReportEnd(i32 noundef 0, i32 noundef 0)
  ret void
}